target datalayout = "e-m:e-p270:32:32-p271:32:32-p272:64:64-i64:64-i128:128-f80:128-n8:16:32:64-S128"
target triple = "x86_64-pc-linux-gnu"

%struct.string_list = type { ptr, i64, i64, i8, ptr }
%struct.remote = type { %struct.hashmap_entry, ptr, i32, i32, ptr, %struct.strvec, %struct.strvec, %struct.refspec, %struct.refspec, i32, i32, i32, i32, i32, ptr, ptr, ptr, ptr, %struct.string_list, i32, ptr }
%struct.hashmap_entry = type { ptr, i32 }
%struct.strvec = type { ptr, i64, i64 }
%struct.refspec = type { ptr, i32, i32, i32 }
%struct.refspec_item = type { i8, ptr, ptr, ptr }
%struct.branch = type { %struct.hashmap_entry, ptr, ptr, ptr, ptr, ptr, ptr, i32, i32, ptr }

@.str.85 = private unnamed_addr constant [1 x i8] zeroinitializer, align 1
@push_default = external global i32, align 4
@.str.95 = private unnamed_addr constant [12 x i8] c"refs/heads/\00", align 1
@.str.103 = private unnamed_addr constant [78 x i8] c"\0ATo choose either option permanently, see push.default in 'git help config'.\0A\00", align 1
@git_branch_track = external global i32, align 4
@.str.104 = private unnamed_addr constant [167 x i8] c"\0ATo avoid automatically configuring an upstream branch when its name\0Awon't match the local branch, see option 'simple' of branch.autoSetupMerge\0Ain 'git help config'.\0A\00", align 1

; Function Attrs: inlinehint nounwind uwtable
define internal zeroext i1 @skip_prefix(ptr noundef %0, ptr noundef %1, ptr noundef %2) #4 {
  %4 = alloca i1, align 1
  %5 = alloca ptr, align 8
  %6 = alloca ptr, align 8
  %7 = alloca ptr, align 8
  store ptr %0, ptr %5, align 8, !tbaa !11
  store ptr %1, ptr %6, align 8, !tbaa !11
  store ptr %2, ptr %7, align 8, !tbaa !8
  br label %8

8:                                                ; preds = %16, %3
  %9 = load ptr, ptr %6, align 8, !tbaa !11
  %10 = load i8, ptr %9, align 1, !tbaa !56
  %11 = icmp ne i8 %10, 0
  br i1 %11, label %15, label %12

12:                                               ; preds = %8
  %13 = load ptr, ptr %5, align 8, !tbaa !11
  %14 = load ptr, ptr %7, align 8, !tbaa !8
  store ptr %13, ptr %14, align 8, !tbaa !11
  store i1 true, ptr %4, align 1
  br label %27

15:                                               ; preds = %8
  br label %16

16:                                               ; preds = %15
  %17 = load ptr, ptr %5, align 8, !tbaa !11
  %18 = getelementptr inbounds nuw i8, ptr %17, i32 1
  store ptr %18, ptr %5, align 8, !tbaa !11
  %19 = load i8, ptr %17, align 1, !tbaa !56
  %20 = sext i8 %19 to i32
  %21 = load ptr, ptr %6, align 8, !tbaa !11
  %22 = getelementptr inbounds nuw i8, ptr %21, i32 1
  store ptr %22, ptr %6, align 8, !tbaa !11
  %23 = load i8, ptr %21, align 1, !tbaa !56
  %24 = sext i8 %23 to i32
  %25 = icmp eq i32 %20, %24
  br i1 %25, label %8, label %26, !llvm.loop !78

26:                                               ; preds = %16
  store i1 false, ptr %4, align 1
  br label %27

27:                                               ; preds = %26, %12
  %28 = load i1, ptr %4, align 1
  ret i1 %28
}

; Function Attrs: noreturn nounwind uwtable
define internal void @die_push_simple(ptr noundef %0, ptr noundef %1) #8 {
  %3 = alloca ptr, align 8
  %4 = alloca ptr, align 8
  %5 = alloca ptr, align 8
  %6 = alloca ptr, align 8
  %7 = alloca ptr, align 8
  store ptr %0, ptr %3, align 8, !tbaa !82
  store ptr %1, ptr %4, align 8, !tbaa !34
  call void @llvm.lifetime.start.p0(i64 8, ptr %5) #9
  store ptr @.str.85, ptr %5, align 8, !tbaa !11
  call void @llvm.lifetime.start.p0(i64 8, ptr %6) #9
  store ptr @.str.85, ptr %6, align 8, !tbaa !11
  call void @llvm.lifetime.start.p0(i64 8, ptr %7) #9
  %8 = load ptr, ptr %3, align 8, !tbaa !82
  %9 = getelementptr inbounds nuw %struct.branch, ptr %8, i32 0, i32 6
  %10 = load ptr, ptr %9, align 8, !tbaa !87
  %11 = getelementptr inbounds ptr, ptr %10, i64 0
  %12 = load ptr, ptr %11, align 8, !tbaa !88
  %13 = getelementptr inbounds nuw %struct.refspec_item, ptr %12, i32 0, i32 1
  %14 = load ptr, ptr %13, align 8, !tbaa !79
  store ptr %14, ptr %7, align 8, !tbaa !11
  %15 = load ptr, ptr %7, align 8, !tbaa !11
  %16 = call zeroext i1 @skip_prefix(ptr noundef %15, ptr noundef @.str.95, ptr noundef %7)
  %17 = load i32, ptr @push_default, align 4, !tbaa !4
  %18 = icmp eq i32 %17, 5
  br i1 %18, label %19, label %21

19:                                               ; preds = %2
  %20 = call ptr @_(ptr noundef @.str.103)
  store ptr %20, ptr %5, align 8, !tbaa !11
  br label %21

21:                                               ; preds = %19, %2
  %22 = load i32, ptr @git_branch_track, align 4, !tbaa !4
  %23 = icmp ne i32 %22, 6
  br i1 %23, label %24, label %26

24:                                               ; preds = %21
  %25 = call ptr @_(ptr noundef @.str.104)
  store ptr %25, ptr %6, align 8, !tbaa !11
  br label %26

26:                                               ; preds = %24, %21
  %27 = call ptr @_(ptr noundef @.str.105)
  %28 = load ptr, ptr %4, align 8, !tbaa !34
  %29 = getelementptr inbounds nuw %struct.remote, ptr %28, i32 0, i32 1
  %30 = load ptr, ptr %29, align 8, !tbaa !89
  %31 = load ptr, ptr %7, align 8, !tbaa !11
  %32 = load ptr, ptr %4, align 8, !tbaa !34
  %33 = getelementptr inbounds nuw %struct.remote, ptr %32, i32 0, i32 1
  %34 = load ptr, ptr %33, align 8, !tbaa !89
  %35 = load ptr, ptr %5, align 8, !tbaa !11
  %36 = load ptr, ptr %6, align 8, !tbaa !11
  call void (ptr, ...) @die(ptr noundef %27, ptr noundef %30, ptr noundef %31, ptr noundef %34, ptr noundef %35, ptr noundef %36) #10
  unreachable
}