; Function Attrs: noreturn nounwind uwtable
define internal fastcc void @die_push_simple(ptr %.56.val.0.val.8.val, ptr noundef nonnull readonly captures(none) %0) unnamed_addr #11 {
  %scevgep = getelementptr i8, ptr %.56.val.0.val.8.val, i64 11
  br label %2

2:                                                ; preds = %3, %1
  %.07.i = phi ptr [ %.56.val.0.val.8.val, %1 ], [ %5, %3 ]
  %.06.i.idx = phi i64 [ 0, %1 ], [ %.06.i.add, %3 ]
  %exitcond = icmp eq i64 %.06.i.idx, 11
  br i1 %exitcond, label %skip_prefix.exit, label %3

3:                                                ; preds = %2
  %.06.i.ptr = getelementptr inbounds nuw i8, ptr @.str.95, i64 %.06.i.idx
  %4 = load i8, ptr %.06.i.ptr, align 1, !tbaa !27
  %5 = getelementptr inbounds nuw i8, ptr %.07.i, i64 1
  %6 = load i8, ptr %.07.i, align 1, !tbaa !27
  %.06.i.add = add nuw nsw i64 %.06.i.idx, 1
  %7 = icmp eq i8 %6, %4
  br i1 %7, label %2, label %skip_prefix.exit, !llvm.loop !41

skip_prefix.exit:                                 ; preds = %2, %3
  %.01 = phi ptr [ %.56.val.0.val.8.val, %3 ], [ %scevgep, %2 ]
  %8 = load i32, ptr @push_default, align 4, !tbaa !4
  %9 = icmp eq i32 %8, 5
  br i1 %9, label %10, label %_.exit

10:                                               ; preds = %skip_prefix.exit
  %11 = load i32, ptr @git_gettext_enabled, align 4, !tbaa !4
  %.not4.i = icmp eq i32 %11, 0
  br i1 %.not4.i, label %_.exit, label %12

12:                                               ; preds = %10
  %13 = tail call ptr @dcgettext(ptr noundef null, ptr noundef nonnull @.str.103, i32 noundef 5) #14
  br label %_.exit

_.exit:                                           ; preds = %12, %10, %skip_prefix.exit
  %.05 = phi ptr [ @.str.85, %skip_prefix.exit ], [ %13, %12 ], [ @.str.103, %10 ]
  %14 = load i32, ptr @git_branch_track, align 4, !tbaa !4
  %.not = icmp eq i32 %14, 6
  br i1 %.not, label %_.exit8, label %15

15:                                               ; preds = %_.exit
  %16 = load i32, ptr @git_gettext_enabled, align 4, !tbaa !4
  %.not4.i6 = icmp eq i32 %16, 0
  br i1 %.not4.i6, label %_.exit8, label %17

17:                                               ; preds = %15
  %18 = tail call ptr @dcgettext(ptr noundef null, ptr noundef nonnull @.str.104, i32 noundef 5) #14
  br label %_.exit8

_.exit8:                                          ; preds = %17, %15, %_.exit
  %.0 = phi ptr [ @.str.85, %_.exit ], [ %18, %17 ], [ @.str.104, %15 ]
  %19 = tail call fastcc ptr @_(ptr noundef nonnull @.str.105)
  %20 = getelementptr inbounds nuw i8, ptr %0, i64 16
  %21 = load ptr, ptr %20, align 8, !tbaa !54
  tail call void (ptr, ...) @die(ptr noundef %19, ptr noundef %21, ptr noundef %.01, ptr noundef %21, ptr noundef %.05, ptr noundef %.0) #15
  unreachable
}